target datalayout = "e-m:e-p270:32:32-p271:32:32-p272:64:64-i64:64-i128:128-f80:128-n8:16:32:64-S128"
target triple = "x86_64-pc-linux-gnu"

%struct.private_data = type { %struct.z_stream_s, i8, ptr, i64, i64, i64, i32, ptr, i8 }
%struct.z_stream_s = type { ptr, i32, i64, ptr, i32, i64, ptr, ptr, ptr, ptr, ptr, i32, i64, i64 }

@.str.1 = private unnamed_addr constant [4 x i8] c"\1F\8B\08\00", align 1

; Function Attrs: inlinehint nounwind uwtable
define internal i32 @archive_le32dec(ptr noundef %0) #4 {
  %2 = alloca ptr, align 8
  %3 = alloca ptr, align 8
  %4 = alloca i32, align 4
  %5 = alloca i32, align 4
  %6 = alloca i32, align 4
  %7 = alloca i32, align 4
  store ptr %0, ptr %2, align 8, !tbaa !25
  call void @llvm.lifetime.start.p0(i64 8, ptr %3) #8
  %8 = load ptr, ptr %2, align 8, !tbaa !25
  store ptr %8, ptr %3, align 8, !tbaa !38
  call void @llvm.lifetime.start.p0(i64 4, ptr %4) #8
  %9 = load ptr, ptr %3, align 8, !tbaa !38
  %10 = getelementptr inbounds i8, ptr %9, i64 3
  %11 = load i8, ptr %10, align 1, !tbaa !39
  %12 = zext i8 %11 to i32
  store i32 %12, ptr %4, align 4, !tbaa !15
  call void @llvm.lifetime.start.p0(i64 4, ptr %5) #8
  %13 = load ptr, ptr %3, align 8, !tbaa !38
  %14 = getelementptr inbounds i8, ptr %13, i64 2
  %15 = load i8, ptr %14, align 1, !tbaa !39
  %16 = zext i8 %15 to i32
  store i32 %16, ptr %5, align 4, !tbaa !15
  call void @llvm.lifetime.start.p0(i64 4, ptr %6) #8
  %17 = load ptr, ptr %3, align 8, !tbaa !38
  %18 = getelementptr inbounds i8, ptr %17, i64 1
  %19 = load i8, ptr %18, align 1, !tbaa !39
  %20 = zext i8 %19 to i32
  store i32 %20, ptr %6, align 4, !tbaa !15
  call void @llvm.lifetime.start.p0(i64 4, ptr %7) #8
  %21 = load ptr, ptr %3, align 8, !tbaa !38
  %22 = getelementptr inbounds i8, ptr %21, i64 0
  %23 = load i8, ptr %22, align 1, !tbaa !39
  %24 = zext i8 %23 to i32
  store i32 %24, ptr %7, align 4, !tbaa !15
  %25 = load i32, ptr %4, align 4, !tbaa !15
  %26 = shl i32 %25, 24
  %27 = load i32, ptr %5, align 4, !tbaa !15
  %28 = shl i32 %27, 16
  %29 = or i32 %26, %28
  %30 = load i32, ptr %6, align 4, !tbaa !15
  %31 = shl i32 %30, 8
  %32 = or i32 %29, %31
  %33 = load i32, ptr %7, align 4, !tbaa !15
  %34 = or i32 %32, %33
  call void @llvm.lifetime.end.p0(i64 4, ptr %7) #8
  call void @llvm.lifetime.end.p0(i64 4, ptr %6) #8
  call void @llvm.lifetime.end.p0(i64 4, ptr %5) #8
  call void @llvm.lifetime.end.p0(i64 4, ptr %4) #8
  call void @llvm.lifetime.end.p0(i64 8, ptr %3) #8
  ret i32 %34
}

; Function Attrs: nounwind uwtable
define internal i64 @peek_at_header(ptr noundef %0, ptr noundef %1, ptr noundef %2) #0 {
  %4 = alloca i64, align 8
  %5 = alloca ptr, align 8
  %6 = alloca ptr, align 8
  %7 = alloca ptr, align 8
  %8 = alloca ptr, align 8
  %9 = alloca i64, align 8
  %10 = alloca i64, align 8
  %11 = alloca i32, align 4
  %12 = alloca i32, align 4
  %13 = alloca i32, align 4
  %14 = alloca i64, align 8
  store ptr %0, ptr %5, align 8, !tbaa !13
  store ptr %1, ptr %6, align 8, !tbaa !35
  store ptr %2, ptr %7, align 8, !tbaa !23
  call void @llvm.lifetime.start.p0(i64 8, ptr %8) #8
  call void @llvm.lifetime.start.p0(i64 8, ptr %9) #8
  call void @llvm.lifetime.start.p0(i64 8, ptr %10) #8
  call void @llvm.lifetime.start.p0(i64 4, ptr %11) #8
  store i32 0, ptr %11, align 4, !tbaa !15
  call void @llvm.lifetime.start.p0(i64 4, ptr %12) #8
  store i64 10, ptr %10, align 8, !tbaa !37
  %15 = load ptr, ptr %5, align 8, !tbaa !13
  %16 = load i64, ptr %10, align 8, !tbaa !37
  %17 = call ptr @__archive_read_filter_ahead(ptr noundef %15, i64 noundef %16, ptr noundef %9)
  store ptr %17, ptr %8, align 8, !tbaa !38
  %18 = load ptr, ptr %8, align 8, !tbaa !38
  %19 = icmp eq ptr %18, null
  br i1 %19, label %23, label %20

20:                                               ; preds = %3
  %21 = load i64, ptr %9, align 8, !tbaa !37
  %22 = icmp eq i64 %21, 0
  br i1 %22, label %23, label %24

23:                                               ; preds = %20, %3
  store i64 0, ptr %4, align 8
  store i32 1, ptr %13, align 4
  br label %191

24:                                               ; preds = %20
  %25 = load ptr, ptr %8, align 8, !tbaa !38
  %26 = call i32 @memcmp(ptr noundef %25, ptr noundef @.str.1, i64 noundef 3) #11
  %27 = icmp ne i32 %26, 0
  br i1 %27, label %28, label %29

28:                                               ; preds = %24
  store i64 0, ptr %4, align 8
  store i32 1, ptr %13, align 4
  br label %191

29:                                               ; preds = %24
  %30 = load i32, ptr %11, align 4, !tbaa !15
  %31 = add nsw i32 %30, 24
  store i32 %31, ptr %11, align 4, !tbaa !15
  %32 = load ptr, ptr %8, align 8, !tbaa !38
  %33 = getelementptr inbounds i8, ptr %32, i64 3
  %34 = load i8, ptr %33, align 1, !tbaa !39
  %35 = zext i8 %34 to i32
  %36 = and i32 %35, 224
  %37 = icmp ne i32 %36, 0
  br i1 %37, label %38, label %39

38:                                               ; preds = %29
  store i64 0, ptr %4, align 8
  store i32 1, ptr %13, align 4
  br label %191

39:                                               ; preds = %29
  %40 = load i32, ptr %11, align 4, !tbaa !15
  %41 = add nsw i32 %40, 3
  store i32 %41, ptr %11, align 4, !tbaa !15
  %42 = load ptr, ptr %8, align 8, !tbaa !38
  %43 = getelementptr inbounds i8, ptr %42, i64 3
  %44 = load i8, ptr %43, align 1, !tbaa !39
  %45 = zext i8 %44 to i32
  store i32 %45, ptr %12, align 4, !tbaa !15
  %46 = load ptr, ptr %7, align 8, !tbaa !23
  %47 = icmp ne ptr %46, null
  br i1 %47, label %48, label %54

48:                                               ; preds = %39
  %49 = load ptr, ptr %8, align 8, !tbaa !38
  %50 = getelementptr inbounds i8, ptr %49, i64 4
  %51 = call i32 @archive_le32dec(ptr noundef %50)
  %52 = load ptr, ptr %7, align 8, !tbaa !23
  %53 = getelementptr inbounds nuw %struct.private_data, ptr %52, i32 0, i32 6
  store i32 %51, ptr %53, align 8, !tbaa !40
  br label %54

54:                                               ; preds = %48, %39
  %55 = load i32, ptr %12, align 4, !tbaa !15
  %56 = and i32 %55, 4
  %57 = icmp ne i32 %56, 0
  br i1 %57, label %58, label %85

58:                                               ; preds = %54
  %59 = load ptr, ptr %5, align 8, !tbaa !13
  %60 = load i64, ptr %10, align 8, !tbaa !37
  %61 = add nsw i64 %60, 2
  %62 = call ptr @__archive_read_filter_ahead(ptr noundef %59, i64 noundef %61, ptr noundef %9)
  store ptr %62, ptr %8, align 8, !tbaa !38
  %63 = load ptr, ptr %8, align 8, !tbaa !38
  %64 = icmp eq ptr %63, null
  br i1 %64, label %65, label %66

65:                                               ; preds = %58
  store i64 0, ptr %4, align 8
  store i32 1, ptr %13, align 4
  br label %191

66:                                               ; preds = %58
  %67 = load ptr, ptr %8, align 8, !tbaa !38
  %68 = load i64, ptr %10, align 8, !tbaa !37
  %69 = add nsw i64 %68, 1
  %70 = getelementptr inbounds i8, ptr %67, i64 %69
  %71 = load i8, ptr %70, align 1, !tbaa !39
  %72 = zext i8 %71 to i32
  %73 = shl i32 %72, 8
  %74 = load ptr, ptr %8, align 8, !tbaa !38
  %75 = load i64, ptr %10, align 8, !tbaa !37
  %76 = getelementptr inbounds i8, ptr %74, i64 %75
  %77 = load i8, ptr %76, align 1, !tbaa !39
  %78 = zext i8 %77 to i32
  %79 = or i32 %73, %78
  %80 = sext i32 %79 to i64
  %81 = load i64, ptr %10, align 8, !tbaa !37
  %82 = add nsw i64 %81, %80
  store i64 %82, ptr %10, align 8, !tbaa !37
  %83 = load i64, ptr %10, align 8, !tbaa !37
  %84 = add nsw i64 %83, 2
  store i64 %84, ptr %10, align 8, !tbaa !37
  br label %85

85:                                               ; preds = %66, %54
  %86 = load i32, ptr %12, align 4, !tbaa !15
  %87 = and i32 %86, 8
  %88 = icmp ne i32 %87, 0
  br i1 %88, label %89, label %135

89:                                               ; preds = %85
  call void @llvm.lifetime.start.p0(i64 8, ptr %14) #8
  %90 = load i64, ptr %10, align 8, !tbaa !37
  store i64 %90, ptr %14, align 8, !tbaa !37
  br label %91

91:                                               ; preds = %110, %89
  %92 = load i64, ptr %10, align 8, !tbaa !37
  %93 = add nsw i64 %92, 1
  store i64 %93, ptr %10, align 8, !tbaa !37
  %94 = load i64, ptr %9, align 8, !tbaa !37
  %95 = load i64, ptr %10, align 8, !tbaa !37
  %96 = icmp slt i64 %94, %95
  br i1 %96, label %97, label %105

97:                                               ; preds = %91
  %98 = load i64, ptr %9, align 8, !tbaa !37
  %99 = icmp sgt i64 %98, 1048576
  br i1 %99, label %100, label %101

100:                                              ; preds = %97
  store i64 0, ptr %4, align 8
  store i32 1, ptr %13, align 4
  br label %132

101:                                              ; preds = %97
  %102 = load ptr, ptr %5, align 8, !tbaa !13
  %103 = load i64, ptr %10, align 8, !tbaa !37
  %104 = call ptr @__archive_read_filter_ahead(ptr noundef %102, i64 noundef %103, ptr noundef %9)
  store ptr %104, ptr %8, align 8, !tbaa !38
  br label %105

105:                                              ; preds = %101, %91
  %106 = load ptr, ptr %8, align 8, !tbaa !38
  %107 = icmp eq ptr %106, null
  br i1 %107, label %108, label %109

108:                                              ; preds = %105
  store i64 0, ptr %4, align 8
  store i32 1, ptr %13, align 4
  br label %132

109:                                              ; preds = %105
  br label %110

110:                                              ; preds = %109
  %111 = load ptr, ptr %8, align 8, !tbaa !38
  %112 = load i64, ptr %10, align 8, !tbaa !37
  %113 = sub nsw i64 %112, 1
  %114 = getelementptr inbounds i8, ptr %111, i64 %113
  %115 = load i8, ptr %114, align 1, !tbaa !39
  %116 = zext i8 %115 to i32
  %117 = icmp ne i32 %116, 0
  br i1 %117, label %91, label %118, !llvm.loop !41

118:                                              ; preds = %110
  %119 = load ptr, ptr %7, align 8, !tbaa !23
  %120 = icmp ne ptr %119, null
  br i1 %120, label %121, label %131

121:                                              ; preds = %118
  %122 = load ptr, ptr %7, align 8, !tbaa !23
  %123 = getelementptr inbounds nuw %struct.private_data, ptr %122, i32 0, i32 7
  %124 = load ptr, ptr %123, align 8, !tbaa !43
  call void @free(ptr noundef %124) #8
  %125 = load ptr, ptr %8, align 8, !tbaa !38
  %126 = load i64, ptr %14, align 8, !tbaa !37
  %127 = getelementptr inbounds i8, ptr %125, i64 %126
  %128 = call noalias ptr @strdup(ptr noundef %127) #8
  %129 = load ptr, ptr %7, align 8, !tbaa !23
  %130 = getelementptr inbounds nuw %struct.private_data, ptr %129, i32 0, i32 7
  store ptr %128, ptr %130, align 8, !tbaa !43
  br label %131

131:                                              ; preds = %121, %118
  store i32 0, ptr %13, align 4
  br label %132

132:                                              ; preds = %131, %108, %100
  call void @llvm.lifetime.end.p0(i64 8, ptr %14) #8
  %133 = load i32, ptr %13, align 4
  switch i32 %133, label %191 [
    i32 0, label %134
  ]

134:                                              ; preds = %132
  br label %135

135:                                              ; preds = %134, %85
  %136 = load i32, ptr %12, align 4, !tbaa !15
  %137 = and i32 %136, 16
  %138 = icmp ne i32 %137, 0
  br i1 %138, label %139, label %168

139:                                              ; preds = %135
  br label %140

140:                                              ; preds = %159, %139
  %141 = load i64, ptr %10, align 8, !tbaa !37
  %142 = add nsw i64 %141, 1
  store i64 %142, ptr %10, align 8, !tbaa !37
  %143 = load i64, ptr %9, align 8, !tbaa !37
  %144 = load i64, ptr %10, align 8, !tbaa !37
  %145 = icmp slt i64 %143, %144
  br i1 %145, label %146, label %154

146:                                              ; preds = %140
  %147 = load i64, ptr %9, align 8, !tbaa !37
  %148 = icmp sgt i64 %147, 1048576
  br i1 %148, label %149, label %150

149:                                              ; preds = %146
  store i64 0, ptr %4, align 8
  store i32 1, ptr %13, align 4
  br label %191

150:                                              ; preds = %146
  %151 = load ptr, ptr %5, align 8, !tbaa !13
  %152 = load i64, ptr %10, align 8, !tbaa !37
  %153 = call ptr @__archive_read_filter_ahead(ptr noundef %151, i64 noundef %152, ptr noundef %9)
  store ptr %153, ptr %8, align 8, !tbaa !38
  br label %154

154:                                              ; preds = %150, %140
  %155 = load ptr, ptr %8, align 8, !tbaa !38
  %156 = icmp eq ptr %155, null
  br i1 %156, label %157, label %158

157:                                              ; preds = %154
  store i64 0, ptr %4, align 8
  store i32 1, ptr %13, align 4
  br label %191

158:                                              ; preds = %154
  br label %159

159:                                              ; preds = %158
  %160 = load ptr, ptr %8, align 8, !tbaa !38
  %161 = load i64, ptr %10, align 8, !tbaa !37
  %162 = sub nsw i64 %161, 1
  %163 = getelementptr inbounds i8, ptr %160, i64 %162
  %164 = load i8, ptr %163, align 1, !tbaa !39
  %165 = zext i8 %164 to i32
  %166 = icmp ne i32 %165, 0
  br i1 %166, label %140, label %167, !llvm.loop !44

167:                                              ; preds = %159
  br label %168

168:                                              ; preds = %167, %135
  %169 = load i32, ptr %12, align 4, !tbaa !15
  %170 = and i32 %169, 2
  %171 = icmp ne i32 %170, 0
  br i1 %171, label %172, label %183

172:                                              ; preds = %168
  %173 = load ptr, ptr %5, align 8, !tbaa !13
  %174 = load i64, ptr %10, align 8, !tbaa !37
  %175 = add nsw i64 %174, 2
  %176 = call ptr @__archive_read_filter_ahead(ptr noundef %173, i64 noundef %175, ptr noundef %9)
  store ptr %176, ptr %8, align 8, !tbaa !38
  %177 = load ptr, ptr %8, align 8, !tbaa !38
  %178 = icmp eq ptr %177, null
  br i1 %178, label %179, label %180

179:                                              ; preds = %172
  store i64 0, ptr %4, align 8
  store i32 1, ptr %13, align 4
  br label %191

180:                                              ; preds = %172
  %181 = load i64, ptr %10, align 8, !tbaa !37
  %182 = add nsw i64 %181, 2
  store i64 %182, ptr %10, align 8, !tbaa !37
  br label %183

183:                                              ; preds = %180, %168
  %184 = load ptr, ptr %6, align 8, !tbaa !35
  %185 = icmp ne ptr %184, null
  br i1 %185, label %186, label %189

186:                                              ; preds = %183
  %187 = load i32, ptr %11, align 4, !tbaa !15
  %188 = load ptr, ptr %6, align 8, !tbaa !35
  store i32 %187, ptr %188, align 4, !tbaa !15
  br label %189

189:                                              ; preds = %186, %183
  %190 = load i64, ptr %10, align 8, !tbaa !37
  store i64 %190, ptr %4, align 8
  store i32 1, ptr %13, align 4
  br label %191

191:                                              ; preds = %189, %179, %157, %149, %132, %65, %38, %28, %23
  call void @llvm.lifetime.end.p0(i64 4, ptr %12) #8
  call void @llvm.lifetime.end.p0(i64 4, ptr %11) #8
  call void @llvm.lifetime.end.p0(i64 8, ptr %10) #8
  call void @llvm.lifetime.end.p0(i64 8, ptr %9) #8
  call void @llvm.lifetime.end.p0(i64 8, ptr %8) #8
  %192 = load i64, ptr %4, align 8
  ret i64 %192
}