; Function Attrs: nounwind uwtable
define internal fastcc range(i64 -9223372036854775807, -9223372036854775808) i64 @peek_at_header(ptr noundef %0, ptr noundef writeonly %1, ptr noundef %2) unnamed_addr #0 {
  %4 = alloca i64, align 8
  call void @llvm.lifetime.start.p0(i64 8, ptr nonnull %4) #8
  %5 = call ptr @__archive_read_filter_ahead(ptr noundef %0, i64 noundef 10, ptr noundef nonnull %4) #8
  %6 = icmp eq ptr %5, null
  %7 = load i64, ptr %4, align 8
  %8 = icmp eq i64 %7, 0
  %or.cond = select i1 %6, i1 true, i1 %8
  br i1 %or.cond, label %.loopexit, label %9

9:                                                ; preds = %3
  %bcmp = call i32 @bcmp(ptr noundef nonnull dereferenceable(3) %5, ptr noundef nonnull dereferenceable(3) @.str.1, i64 3)
  %.not = icmp eq i32 %bcmp, 0
  br i1 %.not, label %10, label %.loopexit

10:                                               ; preds = %9
  %11 = getelementptr inbounds nuw i8, ptr %5, i64 3
  %12 = load i8, ptr %11, align 1, !tbaa !25
  %13 = zext i8 %12 to i32
  %.not71 = icmp ult i8 %12, 32
  br i1 %.not71, label %14, label %.loopexit

14:                                               ; preds = %10
  %.not72 = icmp eq ptr %2, null
  br i1 %.not72, label %19, label %15

15:                                               ; preds = %14
  %16 = getelementptr inbounds nuw i8, ptr %5, i64 4
  %17 = load i32, ptr %16, align 1
  %18 = getelementptr inbounds nuw i8, ptr %2, i64 152
  store i32 %17, ptr %18, align 8, !tbaa !26
  br label %19

19:                                               ; preds = %15, %14
  %20 = and i32 %13, 4
  %.not73 = icmp eq i32 %20, 0
  br i1 %.not73, label %29, label %21

21:                                               ; preds = %19
  %22 = call ptr @__archive_read_filter_ahead(ptr noundef %0, i64 noundef 12, ptr noundef nonnull %4) #8
  %23 = icmp eq ptr %22, null
  br i1 %23, label %.loopexit, label %24

24:                                               ; preds = %21
  %25 = getelementptr i8, ptr %22, i64 10
  %26 = load i16, ptr %25, align 1
  %27 = zext i16 %26 to i64
  %28 = add nuw nsw i64 %27, 12
  br label %29

29:                                               ; preds = %24, %19
  %.057 = phi i64 [ %28, %24 ], [ 10, %19 ]
  %.055 = phi ptr [ %22, %24 ], [ %5, %19 ]
  %30 = and i32 %13, 8
  %.not74 = icmp eq i32 %30, 0
  br i1 %.not74, label %.thread84, label %.preheader91

.preheader91:                                     ; preds = %29, %.thread
  %.259 = phi i64 [ %31, %.thread ], [ %.057, %29 ]
  %.2 = phi ptr [ %.383, %.thread ], [ %.055, %29 ]
  %31 = add nuw nsw i64 %.259, 1
  %32 = load i64, ptr %4, align 8, !tbaa !27
  %.not75 = icmp sgt i64 %32, %.259
  br i1 %.not75, label %.thread, label %33

33:                                               ; preds = %.preheader91
  %34 = icmp sgt i64 %32, 1048576
  br i1 %34, label %.loopexit, label %35

35:                                               ; preds = %33
  %36 = call ptr @__archive_read_filter_ahead(ptr noundef %0, i64 noundef %31, ptr noundef nonnull %4) #8
  %37 = icmp eq ptr %36, null
  br i1 %37, label %.loopexit, label %.thread

.thread:                                          ; preds = %.preheader91, %35
  %.383 = phi ptr [ %36, %35 ], [ %.2, %.preheader91 ]
  %38 = getelementptr inbounds i8, ptr %.383, i64 %.259
  %39 = load i8, ptr %38, align 1, !tbaa !25
  %.not76 = icmp eq i8 %39, 0
  br i1 %.not76, label %40, label %.preheader91, !llvm.loop !28

40:                                               ; preds = %.thread
  br i1 %.not72, label %.thread84, label %41

41:                                               ; preds = %40
  %42 = getelementptr inbounds nuw i8, ptr %2, i64 160
  %43 = load ptr, ptr %42, align 8, !tbaa !30
  call void @free(ptr noundef %43) #8
  %44 = getelementptr inbounds nuw i8, ptr %.383, i64 %.057
  %45 = call noalias ptr @strdup(ptr noundef nonnull %44) #8
  store ptr %45, ptr %42, align 8, !tbaa !30
  br label %.thread84

.thread84:                                        ; preds = %40, %41, %29
  %.158 = phi i64 [ %.057, %29 ], [ %31, %41 ], [ %31, %40 ]
  %.156 = phi ptr [ %.055, %29 ], [ %.383, %41 ], [ %.383, %40 ]
  %.not77 = icmp ult i8 %12, 16
  br i1 %.not77, label %.loopexit90, label %.preheader

.preheader:                                       ; preds = %.thread84, %.thread87
  %.461 = phi i64 [ %46, %.thread87 ], [ %.158, %.thread84 ]
  %.5 = phi ptr [ %.689, %.thread87 ], [ %.156, %.thread84 ]
  %46 = add nsw i64 %.461, 1
  %47 = load i64, ptr %4, align 8, !tbaa !27
  %.not78 = icmp sgt i64 %47, %.461
  br i1 %.not78, label %.thread87, label %48

48:                                               ; preds = %.preheader
  %49 = icmp sgt i64 %47, 1048576
  br i1 %49, label %.loopexit, label %50

50:                                               ; preds = %48
  %51 = call ptr @__archive_read_filter_ahead(ptr noundef %0, i64 noundef %46, ptr noundef nonnull %4) #8
  %52 = icmp eq ptr %51, null
  br i1 %52, label %.loopexit, label %.thread87

.thread87:                                        ; preds = %.preheader, %50
  %.689 = phi ptr [ %51, %50 ], [ %.5, %.preheader ]
  %53 = getelementptr inbounds i8, ptr %.689, i64 %.461
  %54 = load i8, ptr %53, align 1, !tbaa !25
  %.not79 = icmp eq i8 %54, 0
  br i1 %.not79, label %.loopexit90, label %.preheader, !llvm.loop !31

.loopexit90:                                      ; preds = %.thread87, %.thread84
  %.360 = phi i64 [ %.158, %.thread84 ], [ %46, %.thread87 ]
  %55 = and i32 %13, 2
  %.not80 = icmp eq i32 %55, 0
  br i1 %.not80, label %60, label %56

56:                                               ; preds = %.loopexit90
  %57 = add nsw i64 %.360, 2
  %58 = call ptr @__archive_read_filter_ahead(ptr noundef %0, i64 noundef %57, ptr noundef nonnull %4) #8
  %59 = icmp eq ptr %58, null
  br i1 %59, label %.loopexit, label %60

60:                                               ; preds = %56, %.loopexit90
  %.562 = phi i64 [ %.360, %.loopexit90 ], [ %57, %56 ]
  %.not81 = icmp eq ptr %1, null
  br i1 %.not81, label %.loopexit, label %61

61:                                               ; preds = %60
  store i32 27, ptr %1, align 4, !tbaa !32
  br label %.loopexit

.loopexit:                                        ; preds = %33, %35, %50, %48, %60, %61, %56, %21, %10, %9, %3
  %.0 = phi i64 [ 0, %3 ], [ 0, %9 ], [ 0, %10 ], [ 0, %21 ], [ 0, %56 ], [ %.562, %61 ], [ %.562, %60 ], [ 0, %48 ], [ 0, %50 ], [ 0, %35 ], [ 0, %33 ]
  call void @llvm.lifetime.end.p0(i64 8, ptr nonnull %4) #8
  ret i64 %.0
}